; Function Attrs: nounwind uwtable
define internal ptr @ml_dsa_gen_init(ptr noundef %0, i32 %1, ptr noundef %2) #0 {
  %4 = alloca ptr, align 8
  %5 = tail call i32 @ossl_prov_is_running() #6
  %.not = icmp eq i32 %5, 0
  br i1 %.not, label %ml_dsa_gen_set_params.exit, label %6

6:                                                ; preds = %3
  %7 = tail call noalias ptr @CRYPTO_zalloc(i64 noundef 56, ptr noundef nonnull @.str.3, i32 noundef 414) #6
  %.not9 = icmp eq ptr %7, null
  br i1 %.not9, label %ml_dsa_gen_set_params.exit, label %8

8:                                                ; preds = %6
  store ptr %0, ptr %7, align 8, !tbaa !20
  %9 = tail call ptr @OSSL_PARAM_locate_const(ptr noundef %2, ptr noundef nonnull @.str.5) #6
  %.not.i = icmp eq ptr %9, null
  br i1 %.not.i, label %15, label %10

10:                                               ; preds = %8
  call void @llvm.lifetime.start.p0(i64 8, ptr nonnull %4) #6
  %11 = getelementptr inbounds nuw i8, ptr %7, i64 16
  store ptr %11, ptr %4, align 8, !tbaa !17
  %12 = getelementptr inbounds nuw i8, ptr %7, i64 48
  %13 = call i32 @OSSL_PARAM_get_octet_string(ptr noundef nonnull %9, ptr noundef nonnull %4, i64 noundef 32, ptr noundef nonnull %12) #6
  %.not20.not.i = icmp eq i32 %13, 0
  br i1 %.not20.not.i, label %14, label %.critedge.i

14:                                               ; preds = %10
  store i64 0, ptr %12, align 8, !tbaa !23
  call void @llvm.lifetime.end.p0(i64 8, ptr nonnull %4) #6
  br label %21

.critedge.i:                                      ; preds = %10
  call void @llvm.lifetime.end.p0(i64 8, ptr nonnull %4) #6
  br label %15

15:                                               ; preds = %.critedge.i, %8
  %16 = call ptr @OSSL_PARAM_locate_const(ptr noundef %2, ptr noundef nonnull @.str.15) #6
  %.not21.i = icmp eq ptr %16, null
  br i1 %.not21.i, label %ml_dsa_gen_set_params.exit, label %17

17:                                               ; preds = %15
  %18 = getelementptr inbounds nuw i8, ptr %7, i64 8
  %19 = load ptr, ptr %18, align 8, !tbaa !24
  call void @CRYPTO_free(ptr noundef %19, ptr noundef nonnull @.str.3, i32 noundef 473) #6
  store ptr null, ptr %18, align 8, !tbaa !24
  %20 = call i32 @OSSL_PARAM_get_utf8_string(ptr noundef nonnull %16, ptr noundef nonnull %18, i64 noundef 0) #6
  %.not22.i = icmp eq i32 %20, 0
  br i1 %.not22.i, label %21, label %ml_dsa_gen_set_params.exit

21:                                               ; preds = %14, %17
  call void @CRYPTO_free(ptr noundef nonnull %7, ptr noundef nonnull @.str.3, i32 noundef 417) #6
  br label %ml_dsa_gen_set_params.exit

ml_dsa_gen_set_params.exit:                       ; preds = %17, %15, %6, %21, %3
  %.07 = phi ptr [ null, %3 ], [ null, %21 ], [ null, %6 ], [ %7, %15 ], [ %7, %17 ]
  ret ptr %.07
}